; Function Attrs: nounwind uwtable
define range(i32 -1, 256) i32 @MOZ_Z_gzputc(ptr noundef %0, i32 noundef %1) local_unnamed_addr #0 {
  %3 = alloca [1 x i8], align 1
  call void @llvm.lifetime.start.p0(i64 1, ptr nonnull %3) #14
  %4 = icmp eq ptr %0, null
  br i1 %4, label %gz_zero.exit.thread, label %5

5:                                                ; preds = %2
  %6 = getelementptr inbounds nuw i8, ptr %0, i64 120
  %7 = getelementptr inbounds nuw i8, ptr %0, i64 24
  %8 = load i32, ptr %7, align 8, !tbaa !3
  %.not = icmp eq i32 %8, 31153
  br i1 %.not, label %9, label %gz_zero.exit.thread

9:                                                ; preds = %5
  %10 = getelementptr inbounds nuw i8, ptr %0, i64 108
  %11 = load i32, ptr %10, align 4, !tbaa !14
  %.not29 = icmp eq i32 %11, 0
  br i1 %.not29, label %12, label %gz_zero.exit.thread

12:                                               ; preds = %9
  %13 = getelementptr inbounds nuw i8, ptr %0, i64 104
  %14 = load i32, ptr %13, align 8, !tbaa !16
  %.not30 = icmp eq i32 %14, 0
  br i1 %.not30, label %gz_zero.exit, label %15

15:                                               ; preds = %12
  store i32 0, ptr %13, align 8, !tbaa !16
  %16 = getelementptr inbounds nuw i8, ptr %0, i64 96
  %17 = load i64, ptr %16, align 8, !tbaa !17
  %18 = getelementptr inbounds nuw i8, ptr %0, i64 128
  %19 = load i32, ptr %18, align 8, !tbaa !18
  %.not.i = icmp eq i32 %19, 0
  br i1 %.not.i, label %23, label %20

20:                                               ; preds = %15
  %21 = tail call fastcc i32 @gz_comp(ptr noundef nonnull %0, i32 noundef 0)
  %22 = icmp eq i32 %21, -1
  br i1 %22, label %gz_zero.exit.thread, label %23

23:                                               ; preds = %20, %15
  %.not2224.i = icmp eq i64 %17, 0
  br i1 %.not2224.i, label %gz_zero.exit, label %.lr.ph.i

.lr.ph.i:                                         ; preds = %23
  %24 = getelementptr inbounds nuw i8, ptr %0, i64 40
  %25 = getelementptr inbounds nuw i8, ptr %0, i64 48
  %26 = getelementptr inbounds nuw i8, ptr %0, i64 16
  br label %29

27:                                               ; preds = %37
  %28 = sub nsw i64 %.02026.i, %.pre-phi.i
  %.not22.i = icmp eq i64 %28, 0
  br i1 %.not22.i, label %gz_zero.exit, label %29, !llvm.loop !19

29:                                               ; preds = %27, %.lr.ph.i
  %.02026.i = phi i64 [ %17, %.lr.ph.i ], [ %28, %27 ]
  %.not2325.i = phi i1 [ false, %.lr.ph.i ], [ true, %27 ]
  %30 = load i32, ptr %24, align 8, !tbaa !15
  %31 = zext i32 %30 to i64
  %32 = tail call i64 @llvm.smin.i64(i64 %.02026.i, i64 %31)
  %33 = trunc i64 %32 to i32
  br i1 %.not2325.i, label %._crit_edge.i, label %34

._crit_edge.i:                                    ; preds = %29
  %.pre.i = and i64 %32, 4294967295
  br label %37

34:                                               ; preds = %29
  %35 = load ptr, ptr %25, align 8, !tbaa !21
  %36 = and i64 %32, 4294967295
  tail call void @llvm.memset.p0.i64(ptr align 1 %35, i8 0, i64 %36, i1 false)
  br label %37

37:                                               ; preds = %34, %._crit_edge.i
  %.pre-phi.i = phi i64 [ %.pre.i, %._crit_edge.i ], [ %36, %34 ]
  store i32 %33, ptr %18, align 8, !tbaa !18
  %38 = load ptr, ptr %25, align 8, !tbaa !21
  store ptr %38, ptr %6, align 8, !tbaa !22
  %39 = load i64, ptr %26, align 8, !tbaa !23
  %40 = add nsw i64 %39, %.pre-phi.i
  store i64 %40, ptr %26, align 8, !tbaa !23
  %41 = tail call fastcc i32 @gz_comp(ptr noundef nonnull %0, i32 noundef 0)
  %42 = icmp eq i32 %41, -1
  br i1 %42, label %gz_zero.exit.thread, label %27

gz_zero.exit:                                     ; preds = %27, %23, %12
  %43 = getelementptr inbounds nuw i8, ptr %0, i64 40
  %44 = load i32, ptr %43, align 8, !tbaa !15
  %.not31 = icmp eq i32 %44, 0
  br i1 %.not31, label %72, label %45

45:                                               ; preds = %gz_zero.exit
  %46 = getelementptr inbounds nuw i8, ptr %0, i64 128
  %47 = load i32, ptr %46, align 8, !tbaa !18
  %48 = icmp eq i32 %47, 0
  br i1 %48, label %49, label %._crit_edge

._crit_edge:                                      ; preds = %45
  %.pre = load ptr, ptr %6, align 8, !tbaa !22
  %.phi.trans.insert = getelementptr inbounds nuw i8, ptr %0, i64 48
  %.pre34 = load ptr, ptr %.phi.trans.insert, align 8, !tbaa !21
  br label %52

49:                                               ; preds = %45
  %50 = getelementptr inbounds nuw i8, ptr %0, i64 48
  %51 = load ptr, ptr %50, align 8, !tbaa !21
  store ptr %51, ptr %6, align 8, !tbaa !22
  br label %52

52:                                               ; preds = %._crit_edge, %49
  %53 = phi ptr [ %.pre34, %._crit_edge ], [ %51, %49 ]
  %54 = phi ptr [ %.pre, %._crit_edge ], [ %51, %49 ]
  %55 = zext i32 %47 to i64
  %56 = getelementptr inbounds nuw i8, ptr %54, i64 %55
  %57 = ptrtoint ptr %56 to i64
  %58 = ptrtoint ptr %53 to i64
  %59 = sub i64 %57, %58
  %60 = trunc i64 %59 to i32
  %61 = icmp ugt i32 %44, %60
  br i1 %61, label %62, label %72

62:                                               ; preds = %52
  %63 = trunc i32 %1 to i8
  %64 = and i64 %59, 4294967295
  %65 = getelementptr inbounds nuw i8, ptr %53, i64 %64
  store i8 %63, ptr %65, align 1, !tbaa !36
  %66 = load i32, ptr %46, align 8, !tbaa !18
  %67 = add i32 %66, 1
  store i32 %67, ptr %46, align 8, !tbaa !18
  %68 = getelementptr inbounds nuw i8, ptr %0, i64 16
  %69 = load i64, ptr %68, align 8, !tbaa !23
  %70 = add nsw i64 %69, 1
  store i64 %70, ptr %68, align 8, !tbaa !23
  %71 = and i32 %1, 255
  br label %gz_zero.exit.thread

72:                                               ; preds = %52, %gz_zero.exit
  %73 = trunc i32 %1 to i8
  store i8 %73, ptr %3, align 1, !tbaa !36
  %74 = call i32 @MOZ_Z_gzwrite(ptr noundef nonnull %0, ptr noundef nonnull %3, i32 noundef 1)
  %.not32 = icmp eq i32 %74, 1
  %75 = and i32 %1, 255
  %spec.select = select i1 %.not32, i32 %75, i32 -1
  br label %gz_zero.exit.thread

gz_zero.exit.thread:                              ; preds = %37, %20, %72, %5, %9, %2, %62
  %.0 = phi i32 [ %71, %62 ], [ -1, %2 ], [ -1, %9 ], [ -1, %5 ], [ %spec.select, %72 ], [ -1, %20 ], [ -1, %37 ]
  call void @llvm.lifetime.end.p0(i64 1, ptr nonnull %3) #14
  ret i32 %.0
}